(dp0
S'I3D_PLATFORM_IPHONE'
p1
NsS'I3D_OS_IPHONE'
p2
NsS'S3E_EXT_ADMOB'
p3
NsS'IW_ASSERTION_CHANNEL_ADMOB'
p4
S'1'
p5
sS'IW_TRACE_CHANNEL_ADMOB'
p6
g5
sS'IW_SDK'
p7
NsS'IW_USE_ASSERTIONS'
p8
NsS'IW_PLATFORM_IPHONE'
p9
NsS'S3E_BUILD_EXT'
p10
NsS'IW_MKF_S3EADMOB_BUILD'
p11
NsS'IW_TRACE_CHANNEL_ADMOB_VERBOSE'
p12
S'2'
p13
sS'IW_MKF_EDK'
p14
NsS'IW_DEBUG'
p15
NsS'IW_USE_TRACING'
p16
Ns.